target datalayout = "e-m:e-p270:32:32-p271:32:32-p272:64:64-i64:64-i128:128-f80:128-n8:16:32:64-S128"
target triple = "x86_64-pc-linux-gnu"

%union.AVRefStructOpaque = type { ptr }
%struct.AVRefStructPool = type { i64, %union.AVRefStructOpaque, ptr, ptr, ptr, ptr, i32, i32, i32, i64, ptr, %union.pthread_mutex_t }
%union.pthread_mutex_t = type { %struct.__pthread_mutex_s }
%struct.__pthread_mutex_s = type { i32, i32, i32, i32, i32, i16, i16, %struct.__pthread_internal_list }
%struct.__pthread_internal_list = type { ptr, ptr }

; Function Attrs: nounwind uwtable
define internal ptr @get_refcount(ptr noundef %0) #0 {
  %2 = alloca ptr, align 8
  %3 = alloca ptr, align 8
  store ptr %0, ptr %2, align 8, !tbaa !10
  call void @llvm.lifetime.start.p0(i64 8, ptr %3) #7
  %4 = load ptr, ptr %2, align 8, !tbaa !10
  %5 = getelementptr inbounds i8, ptr %4, i64 -32
  store ptr %5, ptr %3, align 8, !tbaa !12
  %6 = load ptr, ptr %3, align 8, !tbaa !12
  call void @llvm.lifetime.end.p0(i64 8, ptr %3) #7
  ret ptr %6
}

; Function Attrs: nounwind uwtable
define internal void @pool_free(ptr noundef %0) #0 {
  %2 = alloca ptr, align 8
  store ptr %0, ptr %2, align 8, !tbaa !19
  %3 = load ptr, ptr %2, align 8, !tbaa !19
  %4 = getelementptr inbounds nuw %struct.AVRefStructPool, ptr %3, i32 0, i32 11
  %5 = call i32 @pthread_mutex_destroy(ptr noundef %4) #7
  %6 = load ptr, ptr %2, align 8, !tbaa !19
  %7 = getelementptr inbounds nuw %struct.AVRefStructPool, ptr %6, i32 0, i32 5
  %8 = load ptr, ptr %7, align 8, !tbaa !29
  %9 = icmp ne ptr %8, null
  br i1 %9, label %10, label %18

10:                                               ; preds = %1
  %11 = load ptr, ptr %2, align 8, !tbaa !19
  %12 = getelementptr inbounds nuw %struct.AVRefStructPool, ptr %11, i32 0, i32 5
  %13 = load ptr, ptr %12, align 8, !tbaa !29
  %14 = load ptr, ptr %2, align 8, !tbaa !19
  %15 = getelementptr inbounds nuw %struct.AVRefStructPool, ptr %14, i32 0, i32 1
  %16 = getelementptr inbounds nuw %union.AVRefStructOpaque, ptr %15, i32 0, i32 0
  %17 = load ptr, ptr %16, align 8
  call void %13(ptr %17)
  br label %18

18:                                               ; preds = %10, %1
  %19 = load ptr, ptr %2, align 8, !tbaa !19
  %20 = call ptr @get_refcount(ptr noundef %19)
  call void @av_free(ptr noundef %20)
  ret void
}

; Function Attrs: nounwind uwtable
define internal ptr @get_userdata(ptr noundef %0) #0 {
  %2 = alloca ptr, align 8
  store ptr %0, ptr %2, align 8, !tbaa !10
  %3 = load ptr, ptr %2, align 8, !tbaa !10
  %4 = getelementptr inbounds nuw i8, ptr %3, i64 32
  ret ptr %4
}

; Function Attrs: nounwind uwtable
define internal void @pool_unref(ptr noundef %0) #0 {
  %2 = alloca ptr, align 8
  %3 = alloca ptr, align 8
  %4 = alloca i64, align 8
  %5 = alloca i64, align 8
  store ptr %0, ptr %2, align 8, !tbaa !10
  call void @llvm.lifetime.start.p0(i64 8, ptr %3) #7
  %6 = load ptr, ptr %2, align 8, !tbaa !10
  %7 = call ptr @get_userdata(ptr noundef %6)
  store ptr %7, ptr %3, align 8, !tbaa !19
  %8 = load ptr, ptr %3, align 8, !tbaa !19
  %9 = getelementptr inbounds nuw %struct.AVRefStructPool, ptr %8, i32 0, i32 9
  store i64 1, ptr %4, align 8, !tbaa !4
  %10 = load i64, ptr %4, align 8
  %11 = atomicrmw sub ptr %9, i64 %10 acq_rel, align 8
  store i64 %11, ptr %5, align 8
  %12 = load i64, ptr %5, align 8, !tbaa !4
  %13 = icmp eq i64 %12, 1
  br i1 %13, label %14, label %16

14:                                               ; preds = %1
  %15 = load ptr, ptr %3, align 8, !tbaa !19
  call void @pool_free(ptr noundef %15)
  br label %16

16:                                               ; preds = %14, %1
  call void @llvm.lifetime.end.p0(i64 8, ptr %3) #7
  ret void
}