; Function Attrs: nounwind uwtable
define internal void @pool_unref(ptr noundef %0) #0 {
  %2 = getelementptr inbounds nuw i8, ptr %0, i64 96
  %3 = atomicrmw sub ptr %2, i64 1 acq_rel, align 8
  %4 = icmp eq i64 %3, 1
  br i1 %4, label %5, label %13

5:                                                ; preds = %1
  %6 = getelementptr inbounds nuw i8, ptr %0, i64 112
  %7 = tail call i32 @pthread_mutex_destroy(ptr noundef nonnull %6) #5
  %8 = getelementptr inbounds nuw i8, ptr %0, i64 72
  %9 = load ptr, ptr %8, align 8, !tbaa !22
  %.not.i = icmp eq ptr %9, null
  br i1 %.not.i, label %pool_free.exit, label %10

10:                                               ; preds = %5
  %11 = getelementptr inbounds nuw i8, ptr %0, i64 40
  %12 = load ptr, ptr %11, align 8
  tail call void %9(ptr %12) #5
  br label %pool_free.exit

pool_free.exit:                                   ; preds = %5, %10
  tail call void @av_free(ptr noundef nonnull %0) #5
  br label %13

13:                                               ; preds = %pool_free.exit, %1
  ret void
}